; Function Attrs: mustprogress uwtable
define { ptr, i32 } @_ZN32pxrInternal_v0_24__pxrReserved__24Sdf_TextFileFormatParser25_GetDisplayUnitFromStringERKNSt7__cxx1112basic_stringIcSt11char_traitsIcESaIcEEEPNS_21Sdf_TextParserContextE(ptr noundef nonnull align 8 dereferenceable(32) %0, ptr noundef %1) local_unnamed_addr #0 personality ptr @__gxx_personality_v0 {
  %3 = alloca %"class.std::__cxx11::basic_string", align 8
  %4 = tail call noundef nonnull align 8 dereferenceable(12) ptr @_ZN32pxrInternal_v0_24__pxrReserved__18SdfGetUnitFromNameERKNSt7__cxx1112basic_stringIcSt11char_traitsIcESaIcEEE(ptr noundef nonnull align 8 dereferenceable(32) %0)
  %5 = getelementptr inbounds nuw i8, ptr %4, i64 8
  %6 = load i32, ptr %5, align 8
  %7 = icmp eq i32 %6, 0
  %.sroa.0.0.copyload.pre7 = load ptr, ptr %4, align 8
  br i1 %7, label %8, label %_ZNK32pxrInternal_v0_24__pxrReserved__6TfEnumeqERKS0_.exit.thread

8:                                                ; preds = %2
  %9 = load ptr, ptr getelementptr inbounds nuw (i8, ptr @_ZTIi, i64 8), align 8
  %10 = getelementptr inbounds nuw i8, ptr %.sroa.0.0.copyload.pre7, i64 8
  %11 = load ptr, ptr %10, align 8
  %12 = icmp eq ptr %9, %11
  br i1 %12, label %_ZNK32pxrInternal_v0_24__pxrReserved__6TfEnumeqERKS0_.exit.thread6, label %13

13:                                               ; preds = %8
  %14 = load i8, ptr %9, align 1
  %.not.i.i.i = icmp eq i8 %14, 42
  br i1 %.not.i.i.i, label %_ZNK32pxrInternal_v0_24__pxrReserved__6TfEnumeqERKS0_.exit.thread, label %_ZNK32pxrInternal_v0_24__pxrReserved__6TfEnumeqERKS0_.exit

_ZNK32pxrInternal_v0_24__pxrReserved__6TfEnumeqERKS0_.exit: ; preds = %13
  %15 = load i8, ptr %11, align 1
  %16 = icmp eq i8 %15, 42
  %.idx.i.i.i.i = zext i1 %16 to i64
  %17 = getelementptr inbounds i8, ptr %11, i64 %.idx.i.i.i.i
  %18 = tail call i32 @strcmp(ptr noundef nonnull dereferenceable(1) %9, ptr noundef nonnull dereferenceable(1) %17) #23
  %19 = icmp eq i32 %18, 0
  br i1 %19, label %_ZNK32pxrInternal_v0_24__pxrReserved__6TfEnumeqERKS0_.exit.thread6, label %_ZNK32pxrInternal_v0_24__pxrReserved__6TfEnumeqERKS0_.exit.thread

_ZNK32pxrInternal_v0_24__pxrReserved__6TfEnumeqERKS0_.exit.thread6: ; preds = %8, %_ZNK32pxrInternal_v0_24__pxrReserved__6TfEnumeqERKS0_.exit
  %20 = tail call noundef ptr @_ZNKSt7__cxx1112basic_stringIcSt11char_traitsIcESaIcEE5c_strEv(ptr noundef nonnull align 8 dereferenceable(32) %0) #23
  call void (ptr, ptr, ...) @_ZN32pxrInternal_v0_24__pxrReserved__14TfStringPrintfB5cxx11EPKcz(ptr dead_on_unwind nonnull writable sret(%"class.std::__cxx11::basic_string") align 8 %3, ptr noundef nonnull @.str.9, ptr noundef %20)
  %21 = call noundef ptr @_ZNKSt7__cxx1112basic_stringIcSt11char_traitsIcESaIcEE5c_strEv(ptr noundef nonnull align 8 dereferenceable(32) %3) #23
  invoke void @_ZN32pxrInternal_v0_24__pxrReserved__24Sdf_TextFileFormatParser11_RaiseErrorEPNS_21Sdf_TextParserContextEPKc(ptr noundef %1, ptr noundef %21)
          to label %22 unwind label %23

22:                                               ; preds = %_ZNK32pxrInternal_v0_24__pxrReserved__6TfEnumeqERKS0_.exit.thread6
  call void @_ZNSt7__cxx1112basic_stringIcSt11char_traitsIcESaIcEED1Ev(ptr noundef nonnull align 8 dereferenceable(32) %3) #23
  %.sroa.0.0.copyload.pre = load ptr, ptr %4, align 8
  %.sroa.2.0.copyload.pre = load i32, ptr %5, align 8
  br label %_ZNK32pxrInternal_v0_24__pxrReserved__6TfEnumeqERKS0_.exit.thread

23:                                               ; preds = %_ZNK32pxrInternal_v0_24__pxrReserved__6TfEnumeqERKS0_.exit.thread6
  %24 = landingpad { ptr, i32 }
          cleanup
  call void @_ZNSt7__cxx1112basic_stringIcSt11char_traitsIcESaIcEED1Ev(ptr noundef nonnull align 8 dereferenceable(32) %3) #23
  resume { ptr, i32 } %24

_ZNK32pxrInternal_v0_24__pxrReserved__6TfEnumeqERKS0_.exit.thread: ; preds = %13, %2, %22, %_ZNK32pxrInternal_v0_24__pxrReserved__6TfEnumeqERKS0_.exit
  %.sroa.2.0.copyload = phi i32 [ 0, %13 ], [ %6, %2 ], [ %.sroa.2.0.copyload.pre, %22 ], [ 0, %_ZNK32pxrInternal_v0_24__pxrReserved__6TfEnumeqERKS0_.exit ]
  %.sroa.0.0.copyload = phi ptr [ %.sroa.0.0.copyload.pre7, %13 ], [ %.sroa.0.0.copyload.pre7, %2 ], [ %.sroa.0.0.copyload.pre, %22 ], [ %.sroa.0.0.copyload.pre7, %_ZNK32pxrInternal_v0_24__pxrReserved__6TfEnumeqERKS0_.exit ]
  %.fca.0.insert = insertvalue { ptr, i32 } poison, ptr %.sroa.0.0.copyload, 0
  %.fca.1.insert = insertvalue { ptr, i32 } %.fca.0.insert, i32 %.sroa.2.0.copyload, 1
  ret { ptr, i32 } %.fca.1.insert
}